target datalayout = "e-m:e-p270:32:32-p271:32:32-p272:64:64-i64:64-i128:128-f80:128-n8:16:32:64-S128"
target triple = "x86_64-pc-linux-gnu"

%struct.SlabContext = type { %struct.MemoryContextData, i32, i32, i32, i32, i32, i32, %struct.dclist_head, [3 x %struct.dlist_head] }
%struct.MemoryContextData = type { i32, i8, i8, i64, ptr, ptr, ptr, ptr, ptr, ptr, ptr, ptr }
%struct.dclist_head = type { %struct.dlist_head, i32 }
%struct.dlist_head = type { %struct.dlist_node }
%struct.dlist_node = type { ptr, ptr }
%struct.SlabBlock = type { ptr, i32, i32, ptr, ptr, %struct.dlist_node }
%struct.MemoryChunk = type { i64 }

; Function Attrs: inlinehint nounwind uwtable
define internal void @dlist_delete(ptr noundef %0) #5 {
  %2 = alloca ptr, align 8
  store ptr %0, ptr %2, align 8
  %3 = load ptr, ptr %2, align 8
  %4 = getelementptr inbounds nuw %struct.dlist_node, ptr %3, i32 0, i32 1
  %5 = load ptr, ptr %4, align 8
  %6 = load ptr, ptr %2, align 8
  %7 = getelementptr inbounds nuw %struct.dlist_node, ptr %6, i32 0, i32 0
  %8 = load ptr, ptr %7, align 8
  %9 = getelementptr inbounds nuw %struct.dlist_node, ptr %8, i32 0, i32 1
  store ptr %5, ptr %9, align 8
  %10 = load ptr, ptr %2, align 8
  %11 = getelementptr inbounds nuw %struct.dlist_node, ptr %10, i32 0, i32 0
  %12 = load ptr, ptr %11, align 8
  %13 = load ptr, ptr %2, align 8
  %14 = getelementptr inbounds nuw %struct.dlist_node, ptr %13, i32 0, i32 1
  %15 = load ptr, ptr %14, align 8
  %16 = getelementptr inbounds nuw %struct.dlist_node, ptr %15, i32 0, i32 0
  store ptr %12, ptr %16, align 8
  ret void
}

; Function Attrs: inlinehint nounwind uwtable
define internal void @MemoryChunkSetHdrMask(ptr noundef %0, ptr noundef %1, i64 noundef %2, i32 noundef %3) #5 {
  %5 = alloca ptr, align 8
  %6 = alloca ptr, align 8
  %7 = alloca i64, align 8
  %8 = alloca i32, align 4
  %9 = alloca i64, align 8
  store ptr %0, ptr %5, align 8
  store ptr %1, ptr %6, align 8
  store i64 %2, ptr %7, align 8
  store i32 %3, ptr %8, align 4
  call void @llvm.lifetime.start.p0(i64 8, ptr %9) #10
  %10 = load ptr, ptr %5, align 8
  %11 = load ptr, ptr %6, align 8
  %12 = ptrtoint ptr %10 to i64
  %13 = ptrtoint ptr %11 to i64
  %14 = sub i64 %12, %13
  store i64 %14, ptr %9, align 8
  %15 = load i64, ptr %9, align 8
  %16 = shl i64 %15, 34
  %17 = load i64, ptr %7, align 8
  %18 = shl i64 %17, 5
  %19 = or i64 %16, %18
  %20 = load i32, ptr %8, align 4
  %21 = zext i32 %20 to i64
  %22 = or i64 %19, %21
  %23 = load ptr, ptr %5, align 8
  %24 = getelementptr inbounds nuw %struct.MemoryChunk, ptr %23, i32 0, i32 0
  store i64 %22, ptr %24, align 8
  call void @llvm.lifetime.end.p0(i64 8, ptr %9) #10
  ret void
}

; Function Attrs: inlinehint nounwind uwtable
define internal void @dlist_init(ptr noundef %0) #5 {
  %2 = alloca ptr, align 8
  store ptr %0, ptr %2, align 8
  %3 = load ptr, ptr %2, align 8
  %4 = getelementptr inbounds nuw %struct.dlist_head, ptr %3, i32 0, i32 0
  %5 = load ptr, ptr %2, align 8
  %6 = getelementptr inbounds nuw %struct.dlist_head, ptr %5, i32 0, i32 0
  %7 = getelementptr inbounds nuw %struct.dlist_node, ptr %6, i32 0, i32 0
  store ptr %4, ptr %7, align 8
  %8 = load ptr, ptr %2, align 8
  %9 = getelementptr inbounds nuw %struct.dlist_head, ptr %8, i32 0, i32 0
  %10 = getelementptr inbounds nuw %struct.dlist_node, ptr %9, i32 0, i32 1
  store ptr %4, ptr %10, align 8
  ret void
}

; Function Attrs: inlinehint nounwind uwtable
define internal ptr @dlist_pop_head_node(ptr noundef %0) #5 {
  %2 = alloca ptr, align 8
  %3 = alloca ptr, align 8
  store ptr %0, ptr %2, align 8
  call void @llvm.lifetime.start.p0(i64 8, ptr %3) #10
  %4 = load ptr, ptr %2, align 8
  %5 = getelementptr inbounds nuw %struct.dlist_head, ptr %4, i32 0, i32 0
  %6 = getelementptr inbounds nuw %struct.dlist_node, ptr %5, i32 0, i32 1
  %7 = load ptr, ptr %6, align 8
  store ptr %7, ptr %3, align 8
  %8 = load ptr, ptr %3, align 8
  call void @dlist_delete(ptr noundef %8)
  %9 = load ptr, ptr %3, align 8
  call void @llvm.lifetime.end.p0(i64 8, ptr %3) #10
  ret ptr %9
}

; Function Attrs: inlinehint nounwind uwtable
define internal ptr @SlabAllocSetupNewChunk(ptr noundef %0, ptr noundef %1, ptr noundef %2, i64 noundef %3) #5 {
  %5 = alloca ptr, align 8
  %6 = alloca ptr, align 8
  %7 = alloca ptr, align 8
  %8 = alloca i64, align 8
  %9 = alloca ptr, align 8
  store ptr %0, ptr %5, align 8
  store ptr %1, ptr %6, align 8
  store ptr %2, ptr %7, align 8
  store i64 %3, ptr %8, align 8
  call void @llvm.lifetime.start.p0(i64 8, ptr %9) #10
  %10 = load ptr, ptr %5, align 8
  store ptr %10, ptr %9, align 8
  br label %11

11:                                               ; preds = %4
  br label %12

12:                                               ; preds = %11
  br label %13

13:                                               ; preds = %12
  %14 = load ptr, ptr %7, align 8
  %15 = load ptr, ptr %6, align 8
  %16 = load ptr, ptr %9, align 8
  %17 = getelementptr inbounds nuw %struct.SlabContext, ptr %16, i32 0, i32 1
  %18 = load i32, ptr %17, align 8
  %19 = zext i32 %18 to i64
  %20 = add i64 %19, 7
  %21 = and i64 %20, -8
  call void @MemoryChunkSetHdrMask(ptr noundef %14, ptr noundef %15, i64 noundef %21, i32 noundef 5)
  br label %22

22:                                               ; preds = %13
  br label %23

23:                                               ; preds = %22
  br label %24

24:                                               ; preds = %23
  %25 = load ptr, ptr %7, align 8
  %26 = getelementptr inbounds nuw i8, ptr %25, i64 8
  call void @llvm.lifetime.end.p0(i64 8, ptr %9) #10
  ret ptr %26
}

; Function Attrs: inlinehint nounwind uwtable
define internal void @dlist_push_head(ptr noundef %0, ptr noundef %1) #5 {
  %3 = alloca ptr, align 8
  %4 = alloca ptr, align 8
  store ptr %0, ptr %3, align 8
  store ptr %1, ptr %4, align 8
  %5 = load ptr, ptr %3, align 8
  %6 = getelementptr inbounds nuw %struct.dlist_head, ptr %5, i32 0, i32 0
  %7 = getelementptr inbounds nuw %struct.dlist_node, ptr %6, i32 0, i32 1
  %8 = load ptr, ptr %7, align 8
  %9 = icmp eq ptr %8, null
  br i1 %9, label %10, label %12

10:                                               ; preds = %2
  %11 = load ptr, ptr %3, align 8
  call void @dlist_init(ptr noundef %11)
  br label %12

12:                                               ; preds = %10, %2
  %13 = load ptr, ptr %3, align 8
  %14 = getelementptr inbounds nuw %struct.dlist_head, ptr %13, i32 0, i32 0
  %15 = getelementptr inbounds nuw %struct.dlist_node, ptr %14, i32 0, i32 1
  %16 = load ptr, ptr %15, align 8
  %17 = load ptr, ptr %4, align 8
  %18 = getelementptr inbounds nuw %struct.dlist_node, ptr %17, i32 0, i32 1
  store ptr %16, ptr %18, align 8
  %19 = load ptr, ptr %3, align 8
  %20 = getelementptr inbounds nuw %struct.dlist_head, ptr %19, i32 0, i32 0
  %21 = load ptr, ptr %4, align 8
  %22 = getelementptr inbounds nuw %struct.dlist_node, ptr %21, i32 0, i32 0
  store ptr %20, ptr %22, align 8
  %23 = load ptr, ptr %4, align 8
  %24 = load ptr, ptr %4, align 8
  %25 = getelementptr inbounds nuw %struct.dlist_node, ptr %24, i32 0, i32 1
  %26 = load ptr, ptr %25, align 8
  %27 = getelementptr inbounds nuw %struct.dlist_node, ptr %26, i32 0, i32 0
  store ptr %23, ptr %27, align 8
  %28 = load ptr, ptr %4, align 8
  %29 = load ptr, ptr %3, align 8
  %30 = getelementptr inbounds nuw %struct.dlist_head, ptr %29, i32 0, i32 0
  %31 = getelementptr inbounds nuw %struct.dlist_node, ptr %30, i32 0, i32 1
  store ptr %28, ptr %31, align 8
  ret void
}

; Function Attrs: inlinehint nounwind uwtable
define internal i32 @SlabBlocklistIndex(ptr noundef %0, i32 noundef %1) #5 {
  %3 = alloca ptr, align 8
  %4 = alloca i32, align 4
  %5 = alloca i32, align 4
  %6 = alloca i32, align 4
  store ptr %0, ptr %3, align 8
  store i32 %1, ptr %4, align 4
  call void @llvm.lifetime.start.p0(i64 4, ptr %5) #10
  call void @llvm.lifetime.start.p0(i64 4, ptr %6) #10
  %7 = load ptr, ptr %3, align 8
  %8 = getelementptr inbounds nuw %struct.SlabContext, ptr %7, i32 0, i32 6
  %9 = load i32, ptr %8, align 4
  store i32 %9, ptr %6, align 4
  %10 = load i32, ptr %4, align 4
  %11 = sub i32 0, %10
  %12 = load i32, ptr %6, align 4
  %13 = ashr i32 %11, %12
  %14 = sub i32 0, %13
  store i32 %14, ptr %5, align 4
  %15 = load i32, ptr %4, align 4
  %16 = icmp eq i32 %15, 0
  br i1 %16, label %17, label %18

17:                                               ; preds = %2
  br label %19

18:                                               ; preds = %2
  br label %19

19:                                               ; preds = %18, %17
  %20 = load i32, ptr %5, align 4
  call void @llvm.lifetime.end.p0(i64 4, ptr %6) #10
  call void @llvm.lifetime.end.p0(i64 4, ptr %5) #10
  ret i32 %20
}

; Function Attrs: inlinehint nounwind uwtable
define internal ptr @SlabGetNextFreeChunk(ptr noundef %0, ptr noundef %1) #5 {
  %3 = alloca ptr, align 8
  %4 = alloca ptr, align 8
  %5 = alloca ptr, align 8
  store ptr %0, ptr %3, align 8
  store ptr %1, ptr %4, align 8
  call void @llvm.lifetime.start.p0(i64 8, ptr %5) #10
  %6 = load ptr, ptr %4, align 8
  %7 = getelementptr inbounds nuw %struct.SlabBlock, ptr %6, i32 0, i32 3
  %8 = load ptr, ptr %7, align 8
  %9 = icmp ne ptr %8, null
  br i1 %9, label %10, label %22

10:                                               ; preds = %2
  %11 = load ptr, ptr %4, align 8
  %12 = getelementptr inbounds nuw %struct.SlabBlock, ptr %11, i32 0, i32 3
  %13 = load ptr, ptr %12, align 8
  store ptr %13, ptr %5, align 8
  br label %14

14:                                               ; preds = %10
  br label %15

15:                                               ; preds = %14
  br label %16

16:                                               ; preds = %15
  %17 = load ptr, ptr %5, align 8
  %18 = getelementptr inbounds nuw i8, ptr %17, i64 8
  %19 = load ptr, ptr %18, align 8
  %20 = load ptr, ptr %4, align 8
  %21 = getelementptr inbounds nuw %struct.SlabBlock, ptr %20, i32 0, i32 3
  store ptr %19, ptr %21, align 8
  br label %40

22:                                               ; preds = %2
  %23 = load ptr, ptr %4, align 8
  %24 = getelementptr inbounds nuw %struct.SlabBlock, ptr %23, i32 0, i32 4
  %25 = load ptr, ptr %24, align 8
  store ptr %25, ptr %5, align 8
  %26 = load ptr, ptr %4, align 8
  %27 = getelementptr inbounds nuw %struct.SlabBlock, ptr %26, i32 0, i32 4
  %28 = load ptr, ptr %27, align 8
  %29 = load ptr, ptr %3, align 8
  %30 = getelementptr inbounds nuw %struct.SlabContext, ptr %29, i32 0, i32 2
  %31 = load i32, ptr %30, align 4
  %32 = zext i32 %31 to i64
  %33 = getelementptr inbounds nuw i8, ptr %28, i64 %32
  %34 = load ptr, ptr %4, align 8
  %35 = getelementptr inbounds nuw %struct.SlabBlock, ptr %34, i32 0, i32 4
  store ptr %33, ptr %35, align 8
  %36 = load ptr, ptr %4, align 8
  %37 = getelementptr inbounds nuw %struct.SlabBlock, ptr %36, i32 0, i32 2
  %38 = load i32, ptr %37, align 4
  %39 = add i32 %38, -1
  store i32 %39, ptr %37, align 4
  br label %40

40:                                               ; preds = %22, %16
  %41 = load ptr, ptr %4, align 8
  %42 = getelementptr inbounds nuw %struct.SlabBlock, ptr %41, i32 0, i32 1
  %43 = load i32, ptr %42, align 8
  %44 = add i32 %43, -1
  store i32 %44, ptr %42, align 8
  %45 = load ptr, ptr %5, align 8
  call void @llvm.lifetime.end.p0(i64 8, ptr %5) #10
  ret ptr %45
}

; Function Attrs: inlinehint nounwind uwtable
define internal ptr @dclist_pop_head_node(ptr noundef %0) #5 {
  %2 = alloca ptr, align 8
  %3 = alloca ptr, align 8
  store ptr %0, ptr %2, align 8
  call void @llvm.lifetime.start.p0(i64 8, ptr %3) #10
  %4 = load ptr, ptr %2, align 8
  %5 = getelementptr inbounds nuw %struct.dclist_head, ptr %4, i32 0, i32 0
  %6 = call ptr @dlist_pop_head_node(ptr noundef %5)
  store ptr %6, ptr %3, align 8
  %7 = load ptr, ptr %2, align 8
  %8 = getelementptr inbounds nuw %struct.dclist_head, ptr %7, i32 0, i32 1
  %9 = load i32, ptr %8, align 8
  %10 = add i32 %9, -1
  store i32 %10, ptr %8, align 8
  %11 = load ptr, ptr %3, align 8
  call void @llvm.lifetime.end.p0(i64 8, ptr %3) #10
  ret ptr %11
}

; Function Attrs: inlinehint nounwind uwtable
define internal i32 @dclist_count(ptr noundef %0) #5 {
  %2 = alloca ptr, align 8
  store ptr %0, ptr %2, align 8
  %3 = load ptr, ptr %2, align 8
  %4 = getelementptr inbounds nuw %struct.dclist_head, ptr %3, i32 0, i32 1
  %5 = load i32, ptr %4, align 8
  ret i32 %5
}

; Function Attrs: noinline nounwind uwtable
define internal ptr @SlabAllocFromNewBlock(ptr noundef %0, i64 noundef %1, i32 noundef %2) #9 {
  %4 = alloca ptr, align 8
  %5 = alloca ptr, align 8
  %6 = alloca i64, align 8
  %7 = alloca i32, align 4
  %8 = alloca ptr, align 8
  %9 = alloca ptr, align 8
  %10 = alloca ptr, align 8
  %11 = alloca ptr, align 8
  %12 = alloca i32, align 4
  %13 = alloca ptr, align 8
  %14 = alloca i32, align 4
  %15 = alloca i32, align 4
  %16 = alloca i32, align 4
  store ptr %0, ptr %5, align 8
  store i64 %1, ptr %6, align 8
  store i32 %2, ptr %7, align 4
  call void @llvm.lifetime.start.p0(i64 8, ptr %8) #10
  %17 = load ptr, ptr %5, align 8
  store ptr %17, ptr %8, align 8
  call void @llvm.lifetime.start.p0(i64 8, ptr %9) #10
  call void @llvm.lifetime.start.p0(i64 8, ptr %10) #10
  call void @llvm.lifetime.start.p0(i64 8, ptr %11) #10
  call void @llvm.lifetime.start.p0(i64 4, ptr %12) #10
  %18 = load ptr, ptr %8, align 8
  %19 = getelementptr inbounds nuw %struct.SlabContext, ptr %18, i32 0, i32 7
  %20 = call i32 @dclist_count(ptr noundef %19)
  %21 = icmp ugt i32 %20, 0
  br i1 %21, label %22, label %37

22:                                               ; preds = %3
  call void @llvm.lifetime.start.p0(i64 8, ptr %13) #10
  %23 = load ptr, ptr %8, align 8
  %24 = getelementptr inbounds nuw %struct.SlabContext, ptr %23, i32 0, i32 7
  %25 = call ptr @dclist_pop_head_node(ptr noundef %24)
  store ptr %25, ptr %13, align 8
  br label %26

26:                                               ; preds = %22
  br label %27

27:                                               ; preds = %26
  br label %28

28:                                               ; preds = %27
  store i32 1, ptr %14, align 4
  br label %29

29:                                               ; preds = %28
  br label %30

30:                                               ; preds = %29
  br label %31

31:                                               ; preds = %30
  store i32 1, ptr %15, align 4
  %32 = load ptr, ptr %13, align 8
  %33 = getelementptr inbounds i8, ptr %32, i64 -32
  store ptr %33, ptr %9, align 8
  %34 = load ptr, ptr %8, align 8
  %35 = load ptr, ptr %9, align 8
  %36 = call ptr @SlabGetNextFreeChunk(ptr noundef %34, ptr noundef %35)
  store ptr %36, ptr %10, align 8
  call void @llvm.lifetime.end.p0(i64 8, ptr %13) #10
  br label %100

37:                                               ; preds = %3
  %38 = load ptr, ptr %8, align 8
  %39 = getelementptr inbounds nuw %struct.SlabContext, ptr %38, i32 0, i32 3
  %40 = load i32, ptr %39, align 8
  %41 = zext i32 %40 to i64
  %42 = call noalias ptr @malloc(i64 noundef %41) #12
  store ptr %42, ptr %9, align 8
  %43 = load ptr, ptr %9, align 8
  %44 = icmp eq ptr %43, null
  %45 = zext i1 %44 to i32
  %46 = icmp ne i32 %45, 0
  %47 = zext i1 %46 to i32
  %48 = sext i32 %47 to i64
  %49 = call i64 @llvm.expect.i64(i64 %48, i64 0)
  %50 = icmp ne i64 %49, 0
  br i1 %50, label %51, label %56

51:                                               ; preds = %37
  %52 = load ptr, ptr %5, align 8
  %53 = load i64, ptr %6, align 8
  %54 = load i32, ptr %7, align 4
  %55 = call ptr @MemoryContextAllocationFailure(ptr noundef %52, i64 noundef %53, i32 noundef %54)
  store ptr %55, ptr %4, align 8
  store i32 1, ptr %16, align 4
  br label %122

56:                                               ; preds = %37
  %57 = load ptr, ptr %8, align 8
  %58 = load ptr, ptr %9, align 8
  %59 = getelementptr inbounds nuw %struct.SlabBlock, ptr %58, i32 0, i32 0
  store ptr %57, ptr %59, align 8
  %60 = load ptr, ptr %8, align 8
  %61 = getelementptr inbounds nuw %struct.SlabContext, ptr %60, i32 0, i32 3
  %62 = load i32, ptr %61, align 8
  %63 = zext i32 %62 to i64
  %64 = load ptr, ptr %5, align 8
  %65 = getelementptr inbounds nuw %struct.MemoryContextData, ptr %64, i32 0, i32 3
  %66 = load i64, ptr %65, align 8
  %67 = add i64 %66, %63
  store i64 %67, ptr %65, align 8
  %68 = load ptr, ptr %9, align 8
  %69 = getelementptr inbounds nuw i8, ptr %68, i64 48
  %70 = load ptr, ptr %8, align 8
  %71 = getelementptr inbounds nuw %struct.SlabContext, ptr %70, i32 0, i32 2
  %72 = load i32, ptr %71, align 4
  %73 = mul i32 0, %72
  %74 = zext i32 %73 to i64
  %75 = getelementptr inbounds nuw i8, ptr %69, i64 %74
  store ptr %75, ptr %10, align 8
  %76 = load ptr, ptr %8, align 8
  %77 = getelementptr inbounds nuw %struct.SlabContext, ptr %76, i32 0, i32 4
  %78 = load i32, ptr %77, align 4
  %79 = sub i32 %78, 1
  %80 = load ptr, ptr %9, align 8
  %81 = getelementptr inbounds nuw %struct.SlabBlock, ptr %80, i32 0, i32 1
  store i32 %79, ptr %81, align 8
  %82 = load ptr, ptr %9, align 8
  %83 = getelementptr inbounds nuw i8, ptr %82, i64 48
  %84 = load ptr, ptr %8, align 8
  %85 = getelementptr inbounds nuw %struct.SlabContext, ptr %84, i32 0, i32 2
  %86 = load i32, ptr %85, align 4
  %87 = mul i32 1, %86
  %88 = zext i32 %87 to i64
  %89 = getelementptr inbounds nuw i8, ptr %83, i64 %88
  %90 = load ptr, ptr %9, align 8
  %91 = getelementptr inbounds nuw %struct.SlabBlock, ptr %90, i32 0, i32 4
  store ptr %89, ptr %91, align 8
  %92 = load ptr, ptr %9, align 8
  %93 = getelementptr inbounds nuw %struct.SlabBlock, ptr %92, i32 0, i32 3
  store ptr null, ptr %93, align 8
  %94 = load ptr, ptr %8, align 8
  %95 = getelementptr inbounds nuw %struct.SlabContext, ptr %94, i32 0, i32 4
  %96 = load i32, ptr %95, align 4
  %97 = sub i32 %96, 1
  %98 = load ptr, ptr %9, align 8
  %99 = getelementptr inbounds nuw %struct.SlabBlock, ptr %98, i32 0, i32 2
  store i32 %97, ptr %99, align 4
  br label %100

100:                                              ; preds = %56, %31
  %101 = load ptr, ptr %8, align 8
  %102 = load ptr, ptr %9, align 8
  %103 = getelementptr inbounds nuw %struct.SlabBlock, ptr %102, i32 0, i32 1
  %104 = load i32, ptr %103, align 8
  %105 = call i32 @SlabBlocklistIndex(ptr noundef %101, i32 noundef %104)
  store i32 %105, ptr %12, align 4
  %106 = load ptr, ptr %8, align 8
  %107 = getelementptr inbounds nuw %struct.SlabContext, ptr %106, i32 0, i32 8
  %108 = load i32, ptr %12, align 4
  %109 = sext i32 %108 to i64
  %110 = getelementptr inbounds [3 x %struct.dlist_head], ptr %107, i64 0, i64 %109
  store ptr %110, ptr %11, align 8
  %111 = load ptr, ptr %11, align 8
  %112 = load ptr, ptr %9, align 8
  %113 = getelementptr inbounds nuw %struct.SlabBlock, ptr %112, i32 0, i32 5
  call void @dlist_push_head(ptr noundef %111, ptr noundef %113)
  %114 = load i32, ptr %12, align 4
  %115 = load ptr, ptr %8, align 8
  %116 = getelementptr inbounds nuw %struct.SlabContext, ptr %115, i32 0, i32 5
  store i32 %114, ptr %116, align 8
  %117 = load ptr, ptr %5, align 8
  %118 = load ptr, ptr %9, align 8
  %119 = load ptr, ptr %10, align 8
  %120 = load i64, ptr %6, align 8
  %121 = call ptr @SlabAllocSetupNewChunk(ptr noundef %117, ptr noundef %118, ptr noundef %119, i64 noundef %120)
  store ptr %121, ptr %4, align 8
  store i32 1, ptr %16, align 4
  br label %122

122:                                              ; preds = %100, %51
  call void @llvm.lifetime.end.p0(i64 4, ptr %12) #10
  call void @llvm.lifetime.end.p0(i64 8, ptr %11) #10
  call void @llvm.lifetime.end.p0(i64 8, ptr %10) #10
  call void @llvm.lifetime.end.p0(i64 8, ptr %9) #10
  call void @llvm.lifetime.end.p0(i64 8, ptr %8) #10
  %123 = load ptr, ptr %4, align 8
  ret ptr %123
}