; Function Attrs: noinline nounwind uwtable
define internal fastcc ptr @SlabAllocFromNewBlock(ptr noundef %0, i64 noundef range(i64 0, 4294967296) %1, i32 noundef %2) unnamed_addr #7 {
  %4 = getelementptr i8, ptr %0, i64 120
  %.val = load i32, ptr %4, align 8
  %.not = icmp eq i32 %.val, 0
  br i1 %.not, label %33, label %5

5:                                                ; preds = %3
  %6 = getelementptr i8, ptr %0, i64 112
  %.val.i = load ptr, ptr %6, align 8
  %7 = getelementptr inbounds nuw i8, ptr %.val.i, i64 8
  %8 = load ptr, ptr %7, align 8
  %9 = load ptr, ptr %.val.i, align 8
  %10 = getelementptr inbounds nuw i8, ptr %9, i64 8
  store ptr %8, ptr %10, align 8
  %11 = load ptr, ptr %.val.i, align 8
  store ptr %11, ptr %8, align 8
  %12 = load i32, ptr %4, align 8
  %13 = add i32 %12, -1
  store i32 %13, ptr %4, align 8
  %14 = getelementptr inbounds i8, ptr %.val.i, i64 -32
  %15 = getelementptr inbounds i8, ptr %.val.i, i64 -16
  %16 = load ptr, ptr %15, align 8
  %.not.i = icmp eq ptr %16, null
  br i1 %.not.i, label %20, label %17

17:                                               ; preds = %5
  %18 = getelementptr inbounds nuw i8, ptr %16, i64 8
  %19 = load ptr, ptr %18, align 8
  store ptr %19, ptr %15, align 8
  br label %SlabGetNextFreeChunk.exit

20:                                               ; preds = %5
  %21 = getelementptr inbounds i8, ptr %.val.i, i64 -8
  %22 = load ptr, ptr %21, align 8
  %23 = getelementptr inbounds nuw i8, ptr %0, i64 84
  %24 = load i32, ptr %23, align 4
  %25 = zext i32 %24 to i64
  %26 = getelementptr inbounds nuw i8, ptr %22, i64 %25
  store ptr %26, ptr %21, align 8
  %27 = getelementptr inbounds i8, ptr %.val.i, i64 -20
  %28 = load i32, ptr %27, align 4
  %29 = add i32 %28, -1
  store i32 %29, ptr %27, align 4
  br label %SlabGetNextFreeChunk.exit

SlabGetNextFreeChunk.exit:                        ; preds = %17, %20
  %.0.i = phi ptr [ %16, %17 ], [ %22, %20 ]
  %30 = getelementptr inbounds i8, ptr %.val.i, i64 -24
  %31 = load i32, ptr %30, align 8
  %32 = add i32 %31, -1
  store i32 %32, ptr %30, align 8
  br label %57

33:                                               ; preds = %3
  %34 = getelementptr inbounds nuw i8, ptr %0, i64 88
  %35 = load i32, ptr %34, align 8
  %36 = zext i32 %35 to i64
  %37 = tail call noalias ptr @malloc(i64 noundef %36) #14
  %38 = icmp eq ptr %37, null
  br i1 %38, label %39, label %41, !prof !11

39:                                               ; preds = %33
  %40 = tail call ptr @MemoryContextAllocationFailure(ptr noundef nonnull %0, i64 noundef %1, i32 noundef %2) #13
  br label %86

41:                                               ; preds = %33
  store ptr %0, ptr %37, align 8
  %42 = getelementptr inbounds nuw i8, ptr %0, i64 8
  %43 = load i64, ptr %42, align 8
  %44 = add i64 %43, %36
  store i64 %44, ptr %42, align 8
  %45 = getelementptr inbounds nuw i8, ptr %37, i64 48
  %46 = getelementptr inbounds nuw i8, ptr %0, i64 84
  %47 = getelementptr inbounds nuw i8, ptr %0, i64 92
  %48 = load i32, ptr %47, align 4
  %49 = add i32 %48, -1
  %50 = getelementptr inbounds nuw i8, ptr %37, i64 8
  store i32 %49, ptr %50, align 8
  %51 = load i32, ptr %46, align 4
  %52 = zext i32 %51 to i64
  %53 = getelementptr inbounds nuw i8, ptr %45, i64 %52
  %54 = getelementptr inbounds nuw i8, ptr %37, i64 24
  store ptr %53, ptr %54, align 8
  %55 = getelementptr inbounds nuw i8, ptr %37, i64 16
  store ptr null, ptr %55, align 8
  %56 = getelementptr inbounds nuw i8, ptr %37, i64 12
  store i32 %49, ptr %56, align 4
  br label %57

57:                                               ; preds = %41, %SlabGetNextFreeChunk.exit
  %58 = phi i32 [ %32, %SlabGetNextFreeChunk.exit ], [ %49, %41 ]
  %.038 = phi ptr [ %.0.i, %SlabGetNextFreeChunk.exit ], [ %45, %41 ]
  %.037 = phi ptr [ %14, %SlabGetNextFreeChunk.exit ], [ %37, %41 ]
  %59 = getelementptr i8, ptr %0, i64 100
  %.val40 = load i32, ptr %59, align 4
  %60 = sub i32 0, %58
  %61 = ashr i32 %60, %.val40
  %62 = sub i32 0, %61
  %63 = getelementptr inbounds nuw i8, ptr %0, i64 128
  %64 = sext i32 %62 to i64
  %65 = getelementptr inbounds [3 x %struct.dlist_head], ptr %63, i64 0, i64 %64
  %66 = getelementptr inbounds nuw i8, ptr %.037, i64 32
  %67 = getelementptr inbounds nuw i8, ptr %65, i64 8
  %68 = load ptr, ptr %67, align 8
  %69 = icmp eq ptr %68, null
  br i1 %69, label %70, label %dlist_push_head.exit

70:                                               ; preds = %57
  store ptr %65, ptr %65, align 8
  br label %dlist_push_head.exit

dlist_push_head.exit:                             ; preds = %57, %70
  %71 = phi ptr [ %65, %70 ], [ %68, %57 ]
  %72 = getelementptr inbounds nuw i8, ptr %.037, i64 40
  store ptr %71, ptr %72, align 8
  store ptr %65, ptr %66, align 8
  store ptr %66, ptr %71, align 8
  store ptr %66, ptr %67, align 8
  %73 = getelementptr inbounds nuw i8, ptr %0, i64 96
  store i32 %62, ptr %73, align 8
  %74 = getelementptr i8, ptr %0, i64 80
  %.val41 = load i32, ptr %74, align 8
  %75 = zext i32 %.val41 to i64
  %76 = ptrtoint ptr %.038 to i64
  %77 = ptrtoint ptr %.037 to i64
  %78 = sub i64 %76, %77
  %79 = shl i64 %78, 34
  %80 = shl nuw nsw i64 %75, 5
  %81 = add nuw nsw i64 %80, 224
  %82 = and i64 %81, 274877906688
  %83 = or i64 %79, %82
  %84 = or disjoint i64 %83, 5
  store i64 %84, ptr %.038, align 8
  %85 = getelementptr inbounds nuw i8, ptr %.038, i64 8
  br label %86

86:                                               ; preds = %dlist_push_head.exit, %39
  %.0 = phi ptr [ %85, %dlist_push_head.exit ], [ %40, %39 ]
  ret ptr %.0
}